target datalayout = "e-m:e-p270:32:32-p271:32:32-p272:64:64-i64:64-i128:128-f80:128-n8:16:32:64-S128"
target triple = "x86_64-pc-linux-gnu"

@max_predicate_locks_per_xact = dso_local global i32 0, align 4
@MaxBackends = external global i32, align 4
@max_prepared_xacts = external global i32, align 4
@serializable_buffers = external global i32, align 4

; Function Attrs: nounwind uwtable
define dso_local i64 @PredicateLockShmemSize() #0 {
  %1 = alloca i64, align 8
  %2 = alloca i64, align 8
  call void @llvm.lifetime.start.p0(i64 8, ptr %1) #10
  store i64 0, ptr %1, align 8
  call void @llvm.lifetime.start.p0(i64 8, ptr %2) #10
  %3 = load i32, ptr @max_predicate_locks_per_xact, align 4
  %4 = sext i32 %3 to i64
  %5 = load i32, ptr @MaxBackends, align 4
  %6 = sext i32 %5 to i64
  %7 = load i32, ptr @max_prepared_xacts, align 4
  %8 = sext i32 %7 to i64
  %9 = call i64 @add_size(i64 noundef %6, i64 noundef %8)
  %10 = call i64 @mul_size(i64 noundef %4, i64 noundef %9)
  store i64 %10, ptr %2, align 8
  %11 = load i64, ptr %1, align 8
  %12 = load i64, ptr %2, align 8
  %13 = call i64 @hash_estimate_size(i64 noundef %12, i64 noundef 32)
  %14 = call i64 @add_size(i64 noundef %11, i64 noundef %13)
  store i64 %14, ptr %1, align 8
  %15 = load i64, ptr %2, align 8
  %16 = mul i64 %15, 2
  store i64 %16, ptr %2, align 8
  %17 = load i64, ptr %1, align 8
  %18 = load i64, ptr %2, align 8
  %19 = call i64 @hash_estimate_size(i64 noundef %18, i64 noundef 56)
  %20 = call i64 @add_size(i64 noundef %17, i64 noundef %19)
  store i64 %20, ptr %1, align 8
  %21 = load i64, ptr %1, align 8
  %22 = load i64, ptr %1, align 8
  %23 = udiv i64 %22, 10
  %24 = call i64 @add_size(i64 noundef %21, i64 noundef %23)
  store i64 %24, ptr %1, align 8
  %25 = load i32, ptr @MaxBackends, align 4
  %26 = load i32, ptr @max_prepared_xacts, align 4
  %27 = add i32 %25, %26
  %28 = sext i32 %27 to i64
  store i64 %28, ptr %2, align 8
  %29 = load i64, ptr %2, align 8
  %30 = mul i64 %29, 10
  store i64 %30, ptr %2, align 8
  %31 = load i64, ptr %1, align 8
  %32 = call i64 @add_size(i64 noundef %31, i64 noundef 88)
  store i64 %32, ptr %1, align 8
  %33 = load i64, ptr %1, align 8
  %34 = load i64, ptr %2, align 8
  %35 = call i64 @mul_size(i64 noundef %34, i64 noundef 168)
  %36 = call i64 @add_size(i64 noundef %33, i64 noundef %35)
  store i64 %36, ptr %1, align 8
  %37 = load i64, ptr %1, align 8
  %38 = load i64, ptr %2, align 8
  %39 = call i64 @hash_estimate_size(i64 noundef %38, i64 noundef 16)
  %40 = call i64 @add_size(i64 noundef %37, i64 noundef %39)
  store i64 %40, ptr %1, align 8
  %41 = load i64, ptr %2, align 8
  %42 = mul i64 %41, 5
  store i64 %42, ptr %2, align 8
  %43 = load i64, ptr %1, align 8
  %44 = call i64 @add_size(i64 noundef %43, i64 noundef 24)
  store i64 %44, ptr %1, align 8
  %45 = load i64, ptr %1, align 8
  %46 = load i64, ptr %2, align 8
  %47 = call i64 @mul_size(i64 noundef %46, i64 noundef 48)
  %48 = call i64 @add_size(i64 noundef %45, i64 noundef %47)
  store i64 %48, ptr %1, align 8
  %49 = load i64, ptr %1, align 8
  %50 = call i64 @add_size(i64 noundef %49, i64 noundef 16)
  store i64 %50, ptr %1, align 8
  %51 = load i64, ptr %1, align 8
  %52 = call i64 @add_size(i64 noundef %51, i64 noundef 16)
  store i64 %52, ptr %1, align 8
  %53 = load i64, ptr %1, align 8
  %54 = load i32, ptr @serializable_buffers, align 4
  %55 = call i64 @SimpleLruShmemSize(i32 noundef %54, i32 noundef 0)
  %56 = call i64 @add_size(i64 noundef %53, i64 noundef %55)
  store i64 %56, ptr %1, align 8
  %57 = load i64, ptr %1, align 8
  call void @llvm.lifetime.end.p0(i64 8, ptr %2) #10
  call void @llvm.lifetime.end.p0(i64 8, ptr %1) #10
  ret i64 %57
}