; Function Attrs: nounwind uwtable
define dso_local i64 @PredicateLockShmemSize() local_unnamed_addr #0 {
  %1 = load i32, ptr @max_predicate_locks_per_xact, align 4
  %2 = sext i32 %1 to i64
  %3 = load i32, ptr @MaxBackends, align 4
  %4 = sext i32 %3 to i64
  %5 = load i32, ptr @max_prepared_xacts, align 4
  %6 = sext i32 %5 to i64
  %7 = tail call i64 @add_size(i64 noundef %4, i64 noundef %6) #12
  %8 = tail call i64 @mul_size(i64 noundef %2, i64 noundef %7) #12
  %9 = tail call i64 @hash_estimate_size(i64 noundef %8, i64 noundef 32) #12
  %10 = tail call i64 @add_size(i64 noundef 0, i64 noundef %9) #12
  %11 = shl i64 %8, 1
  %12 = tail call i64 @hash_estimate_size(i64 noundef %11, i64 noundef 56) #12
  %13 = tail call i64 @add_size(i64 noundef %10, i64 noundef %12) #12
  %14 = udiv i64 %13, 10
  %15 = tail call i64 @add_size(i64 noundef %13, i64 noundef %14) #12
  %16 = load i32, ptr @MaxBackends, align 4
  %17 = load i32, ptr @max_prepared_xacts, align 4
  %18 = add i32 %17, %16
  %19 = sext i32 %18 to i64
  %20 = mul nsw i64 %19, 10
  %21 = tail call i64 @add_size(i64 noundef %15, i64 noundef 88) #12
  %22 = tail call i64 @mul_size(i64 noundef %20, i64 noundef 168) #12
  %23 = tail call i64 @add_size(i64 noundef %21, i64 noundef %22) #12
  %24 = tail call i64 @hash_estimate_size(i64 noundef %20, i64 noundef 16) #12
  %25 = tail call i64 @add_size(i64 noundef %23, i64 noundef %24) #12
  %26 = mul nsw i64 %19, 50
  %27 = tail call i64 @add_size(i64 noundef %25, i64 noundef 24) #12
  %28 = tail call i64 @mul_size(i64 noundef %26, i64 noundef 48) #12
  %29 = tail call i64 @add_size(i64 noundef %27, i64 noundef %28) #12
  %30 = tail call i64 @add_size(i64 noundef %29, i64 noundef 16) #12
  %31 = tail call i64 @add_size(i64 noundef %30, i64 noundef 16) #12
  %32 = load i32, ptr @serializable_buffers, align 4
  %33 = tail call i64 @SimpleLruShmemSize(i32 noundef %32, i32 noundef 0) #12
  %34 = tail call i64 @add_size(i64 noundef %31, i64 noundef %33) #12
  ret i64 %34
}